target datalayout = "e-m:e-p270:32:32-p271:32:32-p272:64:64-i64:64-i128:128-f80:128-n8:16:32:64-S128"
target triple = "x86_64-pc-linux-gnu"

; Function Attrs: nounwind uwtable
define dso_local i64 @read_tar_number(ptr noundef %0, i32 noundef %1) #0 {
  %3 = alloca ptr, align 8
  %4 = alloca i32, align 4
  %5 = alloca i64, align 8
  store ptr %0, ptr %3, align 8
  store i32 %1, ptr %4, align 4
  call void @llvm.lifetime.start.p0(i64 8, ptr %5) #7
  store i64 0, ptr %5, align 8
  %6 = load ptr, ptr %3, align 8
  %7 = load i8, ptr %6, align 1
  %8 = sext i8 %7 to i32
  %9 = icmp eq i32 %8, -128
  br i1 %9, label %10, label %25

10:                                               ; preds = %2
  br label %11

11:                                               ; preds = %15, %10
  %12 = load i32, ptr %4, align 4
  %13 = add i32 %12, -1
  store i32 %13, ptr %4, align 4
  %14 = icmp ne i32 %13, 0
  br i1 %14, label %15, label %24

15:                                               ; preds = %11
  %16 = load i64, ptr %5, align 8
  %17 = shl i64 %16, 8
  store i64 %17, ptr %5, align 8
  %18 = load ptr, ptr %3, align 8
  %19 = getelementptr inbounds nuw i8, ptr %18, i32 1
  store ptr %19, ptr %3, align 8
  %20 = load i8, ptr %19, align 1
  %21 = zext i8 %20 to i64
  %22 = load i64, ptr %5, align 8
  %23 = or i64 %22, %21
  store i64 %23, ptr %5, align 8
  br label %11, !llvm.loop !7

24:                                               ; preds = %11
  br label %55

25:                                               ; preds = %2
  br label %26

26:                                               ; preds = %42, %25
  %27 = load i32, ptr %4, align 4
  %28 = add i32 %27, -1
  store i32 %28, ptr %4, align 4
  %29 = icmp ne i32 %27, 0
  br i1 %29, label %30, label %40

30:                                               ; preds = %26
  %31 = load ptr, ptr %3, align 8
  %32 = load i8, ptr %31, align 1
  %33 = sext i8 %32 to i32
  %34 = icmp sge i32 %33, 48
  br i1 %34, label %35, label %40

35:                                               ; preds = %30
  %36 = load ptr, ptr %3, align 8
  %37 = load i8, ptr %36, align 1
  %38 = sext i8 %37 to i32
  %39 = icmp sle i32 %38, 55
  br label %40

40:                                               ; preds = %35, %30, %26
  %41 = phi i1 [ false, %30 ], [ false, %26 ], [ %39, %35 ]
  br i1 %41, label %42, label %54

42:                                               ; preds = %40
  %43 = load i64, ptr %5, align 8
  %44 = shl i64 %43, 3
  store i64 %44, ptr %5, align 8
  %45 = load ptr, ptr %3, align 8
  %46 = load i8, ptr %45, align 1
  %47 = sext i8 %46 to i32
  %48 = sub i32 %47, 48
  %49 = sext i32 %48 to i64
  %50 = load i64, ptr %5, align 8
  %51 = or i64 %50, %49
  store i64 %51, ptr %5, align 8
  %52 = load ptr, ptr %3, align 8
  %53 = getelementptr inbounds nuw i8, ptr %52, i32 1
  store ptr %53, ptr %3, align 8
  br label %26, !llvm.loop !8

54:                                               ; preds = %40
  br label %55

55:                                               ; preds = %54, %24
  %56 = load i64, ptr %5, align 8
  call void @llvm.lifetime.end.p0(i64 8, ptr %5) #7
  ret i64 %56
}