; Function Attrs: nofree norecurse nosync nounwind memory(argmem: read) uwtable
define dso_local i64 @read_tar_number(ptr noundef readonly captures(none) %0, i32 noundef %1) local_unnamed_addr #1 {
  %3 = load i8, ptr %0, align 1
  %4 = icmp eq i8 %3, -128
  br i1 %4, label %.preheader, label %.preheader19

.preheader19:                                     ; preds = %2
  %.not21 = icmp eq i32 %1, 0
  br i1 %.not21, label %.critedge, label %.lr.ph

.preheader:                                       ; preds = %2
  %5 = add i32 %1, -1
  %.not1826 = icmp eq i32 %5, 0
  br i1 %.not1826, label %.critedge, label %.lr.ph29

.lr.ph29:                                         ; preds = %.preheader, %.lr.ph29
  %6 = phi i32 [ %12, %.lr.ph29 ], [ %5, %.preheader ]
  %.028 = phi i64 [ %11, %.lr.ph29 ], [ 0, %.preheader ]
  %.01427 = phi ptr [ %8, %.lr.ph29 ], [ %0, %.preheader ]
  %7 = shl i64 %.028, 8
  %8 = getelementptr inbounds nuw i8, ptr %.01427, i64 1
  %9 = load i8, ptr %8, align 1
  %10 = zext i8 %9 to i64
  %11 = or disjoint i64 %7, %10
  %12 = add i32 %6, -1
  %.not18 = icmp eq i32 %12, 0
  br i1 %.not18, label %.critedge, label %.lr.ph29, !llvm.loop !7

.lr.ph:                                           ; preds = %.preheader19, %15
  %.in = phi i32 [ %16, %15 ], [ %1, %.preheader19 ]
  %.223 = phi i64 [ %19, %15 ], [ 0, %.preheader19 ]
  %.11522 = phi ptr [ %20, %15 ], [ %0, %.preheader19 ]
  %13 = load i8, ptr %.11522, align 1
  %14 = and i8 %13, -8
  %or.cond = icmp eq i8 %14, 48
  br i1 %or.cond, label %15, label %.critedge

15:                                               ; preds = %.lr.ph
  %16 = add i32 %.in, -1
  %17 = shl i64 %.223, 3
  %narrow = add nsw i8 %13, -48
  %18 = zext nneg i8 %narrow to i64
  %19 = or disjoint i64 %17, %18
  %20 = getelementptr inbounds nuw i8, ptr %.11522, i64 1
  %.not = icmp eq i32 %16, 0
  br i1 %.not, label %.critedge, label %.lr.ph, !llvm.loop !8

.critedge:                                        ; preds = %.lr.ph, %15, %.lr.ph29, %.preheader19, %.preheader
  %.1 = phi i64 [ 0, %.preheader ], [ 0, %.preheader19 ], [ %11, %.lr.ph29 ], [ %.223, %.lr.ph ], [ %19, %15 ]
  ret i64 %.1
}